; Function Attrs: nounwind uwtable
define range(i32 -21, 1) i32 @CVodeGetRootInfo(ptr noundef readonly captures(address_is_null) %0, ptr noundef writeonly captures(none) %1) local_unnamed_addr #0 {
  %3 = icmp eq ptr %0, null
  br i1 %3, label %4, label %5

4:                                                ; preds = %2
  tail call void (ptr, i32, ptr, ptr, ptr, ...) @cvProcessError(ptr noundef null, i32 noundef -21, ptr noundef nonnull @.str, ptr noundef nonnull @.str.59, ptr noundef nonnull @.str.2) #6
  br label %.loopexit

5:                                                ; preds = %2
  %6 = getelementptr inbounds nuw i8, ptr %0, i64 2072
  %7 = load i32, ptr %6, align 8, !tbaa !42
  %8 = icmp sgt i32 %7, 0
  br i1 %8, label %.lr.ph, label %.loopexit

.lr.ph:                                           ; preds = %5
  %9 = getelementptr inbounds nuw i8, ptr %0, i64 2080
  %10 = load ptr, ptr %9, align 8, !tbaa !81
  %wide.trip.count = zext nneg i32 %7 to i64
  br label %11

11:                                               ; preds = %.lr.ph, %11
  %indvars.iv = phi i64 [ 0, %.lr.ph ], [ %indvars.iv.next, %11 ]
  %12 = getelementptr inbounds nuw i32, ptr %10, i64 %indvars.iv
  %13 = load i32, ptr %12, align 4, !tbaa !44
  %14 = getelementptr inbounds nuw i32, ptr %1, i64 %indvars.iv
  store i32 %13, ptr %14, align 4, !tbaa !44
  %indvars.iv.next = add nuw nsw i64 %indvars.iv, 1
  %exitcond.not = icmp eq i64 %indvars.iv.next, %wide.trip.count
  br i1 %exitcond.not, label %.loopexit, label %11, !llvm.loop !82

.loopexit:                                        ; preds = %11, %5, %4
  %.0 = phi i32 [ -21, %4 ], [ 0, %5 ], [ 0, %11 ]
  ret i32 %.0
}